target datalayout = "e-m:e-p270:32:32-p271:32:32-p272:64:64-i64:64-i128:128-f80:128-n8:16:32:64-S128"
target triple = "x86_64-unknown-linux-gnu"

%"class.icu_75::UVector" = type { %"class.icu_75::UObject", i32, i32, ptr, ptr, ptr }
%"class.icu_75::UObject" = type { ptr }
%union.UElement = type { ptr }

; Function Attrs: mustprogress nounwind uwtable
define noundef ptr @_ZN6icu_757UVector15orphanElementAtEi(ptr noundef nonnull align 8 dereferenceable(40) %this, i32 noundef %index) #0 align 2 {
entry:
  %this.addr = alloca ptr, align 8
  %index.addr = alloca i32, align 4
  %e = alloca ptr, align 8
  %i = alloca i32, align 4
  store ptr %this, ptr %this.addr, align 8
  store i32 %index, ptr %index.addr, align 4
  %this1 = load ptr, ptr %this.addr, align 8
  store ptr null, ptr %e, align 8
  %0 = load i32, ptr %index.addr, align 4
  %cmp = icmp sle i32 0, %0
  br i1 %cmp, label %land.lhs.true, label %if.end

land.lhs.true:                                    ; preds = %entry
  %1 = load i32, ptr %index.addr, align 4
  %count = getelementptr inbounds %"class.icu_75::UVector", ptr %this1, i32 0, i32 1
  %2 = load i32, ptr %count, align 8
  %cmp2 = icmp slt i32 %1, %2
  br i1 %cmp2, label %if.then, label %if.end

if.then:                                          ; preds = %land.lhs.true
  %elements = getelementptr inbounds %"class.icu_75::UVector", ptr %this1, i32 0, i32 3
  %3 = load ptr, ptr %elements, align 8
  %4 = load i32, ptr %index.addr, align 4
  %idxprom = sext i32 %4 to i64
  %arrayidx = getelementptr inbounds %union.UElement, ptr %3, i64 %idxprom
  %5 = load ptr, ptr %arrayidx, align 8
  store ptr %5, ptr %e, align 8
  %6 = load i32, ptr %index.addr, align 4
  store i32 %6, ptr %i, align 4
  br label %for.cond

for.cond:                                         ; preds = %for.inc, %if.then
  %7 = load i32, ptr %i, align 4
  %count3 = getelementptr inbounds %"class.icu_75::UVector", ptr %this1, i32 0, i32 1
  %8 = load i32, ptr %count3, align 8
  %sub = sub nsw i32 %8, 1
  %cmp4 = icmp slt i32 %7, %sub
  br i1 %cmp4, label %for.body, label %for.end

for.body:                                         ; preds = %for.cond
  %elements5 = getelementptr inbounds %"class.icu_75::UVector", ptr %this1, i32 0, i32 3
  %9 = load ptr, ptr %elements5, align 8
  %10 = load i32, ptr %i, align 4
  %add = add nsw i32 %10, 1
  %idxprom6 = sext i32 %add to i64
  %arrayidx7 = getelementptr inbounds %union.UElement, ptr %9, i64 %idxprom6
  %elements8 = getelementptr inbounds %"class.icu_75::UVector", ptr %this1, i32 0, i32 3
  %11 = load ptr, ptr %elements8, align 8
  %12 = load i32, ptr %i, align 4
  %idxprom9 = sext i32 %12 to i64
  %arrayidx10 = getelementptr inbounds %union.UElement, ptr %11, i64 %idxprom9
  call void @llvm.memcpy.p0.p0.i64(ptr align 8 %arrayidx10, ptr align 8 %arrayidx7, i64 8, i1 false)
  br label %for.inc

for.inc:                                          ; preds = %for.body
  %13 = load i32, ptr %i, align 4
  %inc = add nsw i32 %13, 1
  store i32 %inc, ptr %i, align 4
  br label %for.cond, !llvm.loop !18

for.end:                                          ; preds = %for.cond
  %count11 = getelementptr inbounds %"class.icu_75::UVector", ptr %this1, i32 0, i32 1
  %14 = load i32, ptr %count11, align 8
  %dec = add nsw i32 %14, -1
  store i32 %dec, ptr %count11, align 8
  br label %if.end

if.end:                                           ; preds = %for.end, %land.lhs.true, %entry
  %15 = load ptr, ptr %e, align 8
  ret ptr %15
}

; Function Attrs: mustprogress nounwind uwtable
define internal noundef signext i8 @_ZL9U_FAILURE10UErrorCode(i32 noundef %code) #0 {
entry:
  %code.addr = alloca i32, align 4
  store i32 %code, ptr %code.addr, align 4
  %0 = load i32, ptr %code.addr, align 4
  %cmp = icmp sgt i32 %0, 0
  %conv = zext i1 %cmp to i8
  ret i8 %conv
}

; Function Attrs: mustprogress uwtable
define void @_ZN6icu_757UVector15removeElementAtEi(ptr noundef nonnull align 8 dereferenceable(40) %this, i32 noundef %index) #1 align 2 {
entry:
  %this.addr = alloca ptr, align 8
  %index.addr = alloca i32, align 4
  %e = alloca ptr, align 8
  store ptr %this, ptr %this.addr, align 8
  store i32 %index, ptr %index.addr, align 4
  %this1 = load ptr, ptr %this.addr, align 8
  %0 = load i32, ptr %index.addr, align 4
  %call = call noundef ptr @_ZN6icu_757UVector15orphanElementAtEi(ptr noundef nonnull align 8 dereferenceable(40) %this1, i32 noundef %0)
  store ptr %call, ptr %e, align 8
  %1 = load ptr, ptr %e, align 8
  %cmp = icmp ne ptr %1, null
  br i1 %cmp, label %land.lhs.true, label %if.end

land.lhs.true:                                    ; preds = %entry
  %deleter = getelementptr inbounds %"class.icu_75::UVector", ptr %this1, i32 0, i32 4
  %2 = load ptr, ptr %deleter, align 8
  %cmp2 = icmp ne ptr %2, null
  br i1 %cmp2, label %if.then, label %if.end

if.then:                                          ; preds = %land.lhs.true
  %deleter3 = getelementptr inbounds %"class.icu_75::UVector", ptr %this1, i32 0, i32 4
  %3 = load ptr, ptr %deleter3, align 8
  %4 = load ptr, ptr %e, align 8
  call void %3(ptr noundef %4)
  br label %if.end

if.end:                                           ; preds = %if.then, %land.lhs.true, %entry
  ret void
}

; Function Attrs: mustprogress uwtable
define noundef signext i8 @_ZN6icu_757UVector14ensureCapacityEiR10UErrorCode(ptr noundef nonnull align 8 dereferenceable(40) %this, i32 noundef %minimumCapacity, ptr noundef nonnull align 4 dereferenceable(4) %status) #1 align 2 {
entry:
  %retval = alloca i8, align 1
  %this.addr = alloca ptr, align 8
  %minimumCapacity.addr = alloca i32, align 4
  %status.addr = alloca ptr, align 8
  %newCap = alloca i32, align 4
  %newElems = alloca ptr, align 8
  store ptr %this, ptr %this.addr, align 8
  store i32 %minimumCapacity, ptr %minimumCapacity.addr, align 4
  store ptr %status, ptr %status.addr, align 8
  %this1 = load ptr, ptr %this.addr, align 8
  %0 = load ptr, ptr %status.addr, align 8
  %1 = load i32, ptr %0, align 4
  %call = call noundef signext i8 @_ZL9U_FAILURE10UErrorCode(i32 noundef %1)
  %tobool = icmp ne i8 %call, 0
  br i1 %tobool, label %if.then, label %if.end

if.then:                                          ; preds = %entry
  store i8 0, ptr %retval, align 1
  br label %return

if.end:                                           ; preds = %entry
  %2 = load i32, ptr %minimumCapacity.addr, align 4
  %cmp = icmp slt i32 %2, 0
  br i1 %cmp, label %if.then2, label %if.end3

if.then2:                                         ; preds = %if.end
  %3 = load ptr, ptr %status.addr, align 8
  store i32 1, ptr %3, align 4
  store i8 0, ptr %retval, align 1
  br label %return

if.end3:                                          ; preds = %if.end
  %capacity = getelementptr inbounds %"class.icu_75::UVector", ptr %this1, i32 0, i32 2
  %4 = load i32, ptr %capacity, align 4
  %5 = load i32, ptr %minimumCapacity.addr, align 4
  %cmp4 = icmp slt i32 %4, %5
  br i1 %cmp4, label %if.then5, label %if.end24

if.then5:                                         ; preds = %if.end3
  %capacity6 = getelementptr inbounds %"class.icu_75::UVector", ptr %this1, i32 0, i32 2
  %6 = load i32, ptr %capacity6, align 4
  %cmp7 = icmp sgt i32 %6, 1073741823
  br i1 %cmp7, label %if.then8, label %if.end9

if.then8:                                         ; preds = %if.then5
  %7 = load ptr, ptr %status.addr, align 8
  store i32 1, ptr %7, align 4
  store i8 0, ptr %retval, align 1
  br label %return

if.end9:                                          ; preds = %if.then5
  %capacity10 = getelementptr inbounds %"class.icu_75::UVector", ptr %this1, i32 0, i32 2
  %8 = load i32, ptr %capacity10, align 4
  %mul = mul nsw i32 %8, 2
  store i32 %mul, ptr %newCap, align 4
  %9 = load i32, ptr %newCap, align 4
  %10 = load i32, ptr %minimumCapacity.addr, align 4
  %cmp11 = icmp slt i32 %9, %10
  br i1 %cmp11, label %if.then12, label %if.end13

if.then12:                                        ; preds = %if.end9
  %11 = load i32, ptr %minimumCapacity.addr, align 4
  store i32 %11, ptr %newCap, align 4
  br label %if.end13

if.end13:                                         ; preds = %if.then12, %if.end9
  %12 = load i32, ptr %newCap, align 4
  %cmp14 = icmp sgt i32 %12, 268435455
  br i1 %cmp14, label %if.then15, label %if.end16

if.then15:                                        ; preds = %if.end13
  %13 = load ptr, ptr %status.addr, align 8
  store i32 1, ptr %13, align 4
  store i8 0, ptr %retval, align 1
  br label %return

if.end16:                                         ; preds = %if.end13
  %elements = getelementptr inbounds %"class.icu_75::UVector", ptr %this1, i32 0, i32 3
  %14 = load ptr, ptr %elements, align 8
  %15 = load i32, ptr %newCap, align 4
  %conv = sext i32 %15 to i64
  %mul17 = mul i64 8, %conv
  %call18 = call ptr @uprv_realloc_75(ptr noundef %14, i64 noundef %mul17) #12
  store ptr %call18, ptr %newElems, align 8
  %16 = load ptr, ptr %newElems, align 8
  %cmp19 = icmp eq ptr %16, null
  br i1 %cmp19, label %if.then20, label %if.end21

if.then20:                                        ; preds = %if.end16
  %17 = load ptr, ptr %status.addr, align 8
  store i32 7, ptr %17, align 4
  store i8 0, ptr %retval, align 1
  br label %return

if.end21:                                         ; preds = %if.end16
  %18 = load ptr, ptr %newElems, align 8
  %elements22 = getelementptr inbounds %"class.icu_75::UVector", ptr %this1, i32 0, i32 3
  store ptr %18, ptr %elements22, align 8
  %19 = load i32, ptr %newCap, align 4
  %capacity23 = getelementptr inbounds %"class.icu_75::UVector", ptr %this1, i32 0, i32 2
  store i32 %19, ptr %capacity23, align 4
  br label %if.end24

if.end24:                                         ; preds = %if.end21, %if.end3
  store i8 1, ptr %retval, align 1
  br label %return

return:                                           ; preds = %if.end24, %if.then20, %if.then15, %if.then8, %if.then2, %if.then
  %20 = load i8, ptr %retval, align 1
  ret i8 %20
}

; Function Attrs: mustprogress uwtable
define void @_ZN6icu_757UVector7setSizeEiR10UErrorCode(ptr noundef nonnull align 8 dereferenceable(40) %this, i32 noundef %newSize, ptr noundef nonnull align 4 dereferenceable(4) %status) #1 align 2 {
entry:
  %this.addr = alloca ptr, align 8
  %newSize.addr = alloca i32, align 4
  %status.addr = alloca ptr, align 8
  %empty = alloca %union.UElement, align 8
  %i = alloca i32, align 4
  %i5 = alloca i32, align 4
  store ptr %this, ptr %this.addr, align 8
  store i32 %newSize, ptr %newSize.addr, align 4
  store ptr %status, ptr %status.addr, align 8
  %this1 = load ptr, ptr %this.addr, align 8
  %0 = load i32, ptr %newSize.addr, align 4
  %1 = load ptr, ptr %status.addr, align 8
  %call = call noundef signext i8 @_ZN6icu_757UVector14ensureCapacityEiR10UErrorCode(ptr noundef nonnull align 8 dereferenceable(40) %this1, i32 noundef %0, ptr noundef nonnull align 4 dereferenceable(4) %1)
  %tobool = icmp ne i8 %call, 0
  br i1 %tobool, label %if.end, label %if.then

if.then:                                          ; preds = %entry
  br label %return

if.end:                                           ; preds = %entry
  %2 = load i32, ptr %newSize.addr, align 4
  %count = getelementptr inbounds %"class.icu_75::UVector", ptr %this1, i32 0, i32 1
  %3 = load i32, ptr %count, align 8
  %cmp = icmp sgt i32 %2, %3
  br i1 %cmp, label %if.then2, label %if.else

if.then2:                                         ; preds = %if.end
  store ptr null, ptr %empty, align 8
  store i32 0, ptr %empty, align 8
  %count3 = getelementptr inbounds %"class.icu_75::UVector", ptr %this1, i32 0, i32 1
  %4 = load i32, ptr %count3, align 8
  store i32 %4, ptr %i, align 4
  br label %for.cond

for.cond:                                         ; preds = %for.inc, %if.then2
  %5 = load i32, ptr %i, align 4
  %6 = load i32, ptr %newSize.addr, align 4
  %cmp4 = icmp slt i32 %5, %6
  br i1 %cmp4, label %for.body, label %for.end

for.body:                                         ; preds = %for.cond
  %elements = getelementptr inbounds %"class.icu_75::UVector", ptr %this1, i32 0, i32 3
  %7 = load ptr, ptr %elements, align 8
  %8 = load i32, ptr %i, align 4
  %idxprom = sext i32 %8 to i64
  %arrayidx = getelementptr inbounds %union.UElement, ptr %7, i64 %idxprom
  call void @llvm.memcpy.p0.p0.i64(ptr align 8 %arrayidx, ptr align 8 %empty, i64 8, i1 false)
  br label %for.inc

for.inc:                                          ; preds = %for.body
  %9 = load i32, ptr %i, align 4
  %inc = add nsw i32 %9, 1
  store i32 %inc, ptr %i, align 4
  br label %for.cond, !llvm.loop !7

for.end:                                          ; preds = %for.cond
  br label %if.end12

if.else:                                          ; preds = %if.end
  %count6 = getelementptr inbounds %"class.icu_75::UVector", ptr %this1, i32 0, i32 1
  %10 = load i32, ptr %count6, align 8
  %sub = sub nsw i32 %10, 1
  store i32 %sub, ptr %i5, align 4
  br label %for.cond7

for.cond7:                                        ; preds = %for.inc10, %if.else
  %11 = load i32, ptr %i5, align 4
  %12 = load i32, ptr %newSize.addr, align 4
  %cmp8 = icmp sge i32 %11, %12
  br i1 %cmp8, label %for.body9, label %for.end11

for.body9:                                        ; preds = %for.cond7
  %13 = load i32, ptr %i5, align 4
  call void @_ZN6icu_757UVector15removeElementAtEi(ptr noundef nonnull align 8 dereferenceable(40) %this1, i32 noundef %13)
  br label %for.inc10

for.inc10:                                        ; preds = %for.body9
  %14 = load i32, ptr %i5, align 4
  %dec = add nsw i32 %14, -1
  store i32 %dec, ptr %i5, align 4
  br label %for.cond7, !llvm.loop !8

for.end11:                                        ; preds = %for.cond7
  br label %if.end12

if.end12:                                         ; preds = %for.end11, %for.end
  %15 = load i32, ptr %newSize.addr, align 4
  %count13 = getelementptr inbounds %"class.icu_75::UVector", ptr %this1, i32 0, i32 1
  store i32 %15, ptr %count13, align 8
  br label %return

return:                                           ; preds = %if.end12, %if.then
  ret void
}