; Function Attrs: mustprogress uwtable
define void @_ZN6icu_757UVector7setSizeEiR10UErrorCode(ptr nocapture noundef nonnull align 8 dereferenceable(40) %this, i32 noundef %newSize, ptr nocapture noundef nonnull align 4 dereferenceable(4) %status) local_unnamed_addr #1 align 2 {
entry:
  %0 = load i32, ptr %status, align 4
  %cmp.i.i = icmp slt i32 %0, 1
  br i1 %cmp.i.i, label %if.end.i, label %return

if.end.i:                                         ; preds = %entry
  %cmp.i = icmp slt i32 %newSize, 0
  br i1 %cmp.i, label %if.then2.i, label %if.end3.i

if.then2.i:                                       ; preds = %if.end.i
  store i32 1, ptr %status, align 4
  br label %return

if.end3.i:                                        ; preds = %if.end.i
  %capacity.i = getelementptr inbounds i8, ptr %this, i64 12
  %1 = load i32, ptr %capacity.i, align 4
  %cmp4.i = icmp slt i32 %1, %newSize
  br i1 %cmp4.i, label %if.then5.i, label %if.end

if.then5.i:                                       ; preds = %if.end3.i
  %cmp7.i = icmp sgt i32 %1, 1073741823
  br i1 %cmp7.i, label %if.then8.i, label %if.end9.i

if.then8.i:                                       ; preds = %if.then5.i
  store i32 1, ptr %status, align 4
  br label %return

if.end9.i:                                        ; preds = %if.then5.i
  %mul.i = shl nsw i32 %1, 1
  %spec.select.i = tail call i32 @llvm.smax.i32(i32 %mul.i, i32 %newSize)
  %cmp14.i = icmp ugt i32 %spec.select.i, 268435455
  br i1 %cmp14.i, label %if.then15.i, label %if.end16.i

if.then15.i:                                      ; preds = %if.end9.i
  store i32 1, ptr %status, align 4
  br label %return

if.end16.i:                                       ; preds = %if.end9.i
  %elements.i = getelementptr inbounds i8, ptr %this, i64 16
  %2 = load ptr, ptr %elements.i, align 8
  %3 = shl nuw nsw i32 %spec.select.i, 3
  %mul17.i = zext nneg i32 %3 to i64
  %call18.i = tail call ptr @uprv_realloc_75(ptr noundef %2, i64 noundef %mul17.i) #18
  %cmp19.i = icmp eq ptr %call18.i, null
  br i1 %cmp19.i, label %if.then20.i, label %if.end21.i

if.then20.i:                                      ; preds = %if.end16.i
  store i32 7, ptr %status, align 4
  br label %return

if.end21.i:                                       ; preds = %if.end16.i
  store ptr %call18.i, ptr %elements.i, align 8
  store i32 %spec.select.i, ptr %capacity.i, align 4
  br label %if.end

if.end:                                           ; preds = %if.end21.i, %if.end3.i
  %count = getelementptr inbounds i8, ptr %this, i64 8
  %4 = load i32, ptr %count, align 8
  %cmp = icmp slt i32 %4, %newSize
  br i1 %cmp, label %for.cond.preheader, label %for.cond7.preheader

for.cond7.preheader:                              ; preds = %if.end
  %cmp8.not.not14 = icmp ugt i32 %4, %newSize
  br i1 %cmp8.not.not14, label %for.body9.lr.ph, label %if.end12

for.body9.lr.ph:                                  ; preds = %for.cond7.preheader
  %elements.i.i = getelementptr inbounds i8, ptr %this, i64 16
  %deleter.i = getelementptr inbounds i8, ptr %this, i64 24
  br label %for.body9

for.cond.preheader:                               ; preds = %if.end
  %elements = getelementptr inbounds i8, ptr %this, i64 16
  %5 = sext i32 %4 to i64
  %wide.trip.count = zext nneg i32 %newSize to i64
  br label %for.body

for.body:                                         ; preds = %for.cond.preheader, %for.body
  %indvars.iv = phi i64 [ %5, %for.cond.preheader ], [ %indvars.iv.next, %for.body ]
  %6 = load ptr, ptr %elements, align 8
  %arrayidx = getelementptr inbounds %union.UElement, ptr %6, i64 %indvars.iv
  store ptr null, ptr %arrayidx, align 8
  %indvars.iv.next = add nsw i64 %indvars.iv, 1
  %exitcond.not = icmp eq i64 %indvars.iv.next, %wide.trip.count
  br i1 %exitcond.not, label %if.end12, label %for.body, !llvm.loop !7

for.body9:                                        ; preds = %for.body9.lr.ph, %_ZN6icu_757UVector15removeElementAtEi.exit
  %i5.0.in15 = phi i32 [ %4, %for.body9.lr.ph ], [ %i5.0, %_ZN6icu_757UVector15removeElementAtEi.exit ]
  %i5.0 = add nsw i32 %i5.0.in15, -1
  %7 = load i32, ptr %count, align 8
  %cmp2.i.i.not = icmp slt i32 %7, %i5.0.in15
  br i1 %cmp2.i.i.not, label %_ZN6icu_757UVector15removeElementAtEi.exit, label %if.then.i.i

if.then.i.i:                                      ; preds = %for.body9
  %8 = load ptr, ptr %elements.i.i, align 8
  %idxprom.i.i = zext nneg i32 %i5.0 to i64
  %arrayidx.i.i = getelementptr inbounds %union.UElement, ptr %8, i64 %idxprom.i.i
  %9 = load ptr, ptr %arrayidx.i.i, align 8
  %sub7.i.i = add nsw i32 %7, -1
  %cmp48.i.i = icmp ugt i32 %sub7.i.i, %i5.0
  br i1 %cmp48.i.i, label %for.body.i.i, label %_ZN6icu_757UVector15orphanElementAtEi.exit.i

for.body.i.i:                                     ; preds = %if.then.i.i, %for.body.i.i
  %indvars.iv.i.i = phi i64 [ %indvars.iv.next.i.i, %for.body.i.i ], [ %idxprom.i.i, %if.then.i.i ]
  %10 = load ptr, ptr %elements.i.i, align 8
  %indvars.iv.next.i.i = add nuw nsw i64 %indvars.iv.i.i, 1
  %arrayidx7.i.i = getelementptr inbounds %union.UElement, ptr %10, i64 %indvars.iv.next.i.i
  %arrayidx10.i.i = getelementptr inbounds %union.UElement, ptr %10, i64 %indvars.iv.i.i
  %11 = load i64, ptr %arrayidx7.i.i, align 8
  store i64 %11, ptr %arrayidx10.i.i, align 8
  %12 = load i32, ptr %count, align 8
  %sub.i.i = add nsw i32 %12, -1
  %13 = trunc i64 %indvars.iv.next.i.i to i32
  %cmp4.i.i = icmp sgt i32 %sub.i.i, %13
  br i1 %cmp4.i.i, label %for.body.i.i, label %_ZN6icu_757UVector15orphanElementAtEi.exit.i, !llvm.loop !8

_ZN6icu_757UVector15orphanElementAtEi.exit.i:     ; preds = %for.body.i.i, %if.then.i.i
  %sub.lcssa.i.i = phi i32 [ %sub7.i.i, %if.then.i.i ], [ %sub.i.i, %for.body.i.i ]
  store i32 %sub.lcssa.i.i, ptr %count, align 8
  %cmp.not.i = icmp eq ptr %9, null
  br i1 %cmp.not.i, label %_ZN6icu_757UVector15removeElementAtEi.exit, label %land.lhs.true.i

land.lhs.true.i:                                  ; preds = %_ZN6icu_757UVector15orphanElementAtEi.exit.i
  %14 = load ptr, ptr %deleter.i, align 8
  %cmp2.not.i = icmp eq ptr %14, null
  br i1 %cmp2.not.i, label %_ZN6icu_757UVector15removeElementAtEi.exit, label %if.then.i

if.then.i:                                        ; preds = %land.lhs.true.i
  tail call void %14(ptr noundef nonnull %9)
  br label %_ZN6icu_757UVector15removeElementAtEi.exit

_ZN6icu_757UVector15removeElementAtEi.exit:       ; preds = %for.body9, %_ZN6icu_757UVector15orphanElementAtEi.exit.i, %land.lhs.true.i, %if.then.i
  %cmp8.not.not = icmp sgt i32 %i5.0, %newSize
  br i1 %cmp8.not.not, label %for.body9, label %if.end12, !llvm.loop !9

if.end12:                                         ; preds = %_ZN6icu_757UVector15removeElementAtEi.exit, %for.body, %for.cond7.preheader
  store i32 %newSize, ptr %count, align 8
  br label %return

return:                                           ; preds = %entry, %if.then20.i, %if.then15.i, %if.then8.i, %if.then2.i, %if.end12
  ret void
}